; Function Attrs: nofree nounwind uwtable
define dso_local range(i32 0, 2) i32 @is_directory(ptr noundef readonly captures(none) %0) local_unnamed_addr #0 {
  %2 = alloca %struct.stat, align 8
  call void @llvm.lifetime.start.p0(i64 144, ptr nonnull %2) #12
  %3 = call i32 @stat64(ptr noundef %0, ptr noundef nonnull %2) #12
  %.not = icmp eq i32 %3, 0
  %4 = getelementptr inbounds nuw i8, ptr %2, i64 24
  %5 = load i32, ptr %4, align 8
  %6 = and i32 %5, 61440
  %7 = icmp eq i32 %6, 16384
  %8 = select i1 %.not, i1 %7, i1 false
  %9 = zext i1 %8 to i32
  call void @llvm.lifetime.end.p0(i64 144, ptr nonnull %2) #12
  ret i32 %9
}